target datalayout = "e-m:e-p270:32:32-p271:32:32-p272:64:64-i64:64-i128:128-f80:128-n8:16:32:64-S128"
target triple = "x86_64-pc-linux-gnu"

%struct.gf_s = type { [8 x i64] }

@MODULUS = internal constant [1 x %struct.gf_s] [%struct.gf_s { [8 x i64] [i64 72057594037927935, i64 72057594037927935, i64 72057594037927935, i64 72057594037927935, i64 72057594037927934, i64 72057594037927935, i64 72057594037927935, i64 72057594037927935] }], align 16

; Function Attrs: alwaysinline nounwind uwtable
define internal void @gf_weak_reduce(ptr noundef %0) #2 {
  %2 = alloca ptr, align 8
  %3 = alloca i64, align 8
  %4 = alloca i64, align 8
  %5 = alloca i32, align 4
  store ptr %0, ptr %2, align 8, !tbaa !8
  call void @llvm.lifetime.start.p0(i64 8, ptr %3) #6
  store i64 72057594037927935, ptr %3, align 8, !tbaa !14
  call void @llvm.lifetime.start.p0(i64 8, ptr %4) #6
  %6 = load ptr, ptr %2, align 8, !tbaa !8
  %7 = getelementptr inbounds nuw %struct.gf_s, ptr %6, i32 0, i32 0
  %8 = getelementptr inbounds nuw [8 x i64], ptr %7, i64 0, i64 7
  %9 = load i64, ptr %8, align 8, !tbaa !14
  %10 = lshr i64 %9, 56
  store i64 %10, ptr %4, align 8, !tbaa !14
  call void @llvm.lifetime.start.p0(i64 4, ptr %5) #6
  %11 = load i64, ptr %4, align 8, !tbaa !14
  %12 = load ptr, ptr %2, align 8, !tbaa !8
  %13 = getelementptr inbounds nuw %struct.gf_s, ptr %12, i32 0, i32 0
  %14 = getelementptr inbounds nuw [8 x i64], ptr %13, i64 0, i64 4
  %15 = load i64, ptr %14, align 16, !tbaa !14
  %16 = add i64 %15, %11
  store i64 %16, ptr %14, align 16, !tbaa !14
  store i32 7, ptr %5, align 4, !tbaa !10
  br label %17

17:                                               ; preds = %43, %1
  %18 = load i32, ptr %5, align 4, !tbaa !10
  %19 = icmp ugt i32 %18, 0
  br i1 %19, label %20, label %46

20:                                               ; preds = %17
  %21 = load ptr, ptr %2, align 8, !tbaa !8
  %22 = getelementptr inbounds nuw %struct.gf_s, ptr %21, i32 0, i32 0
  %23 = load i32, ptr %5, align 4, !tbaa !10
  %24 = zext i32 %23 to i64
  %25 = getelementptr inbounds nuw [8 x i64], ptr %22, i64 0, i64 %24
  %26 = load i64, ptr %25, align 8, !tbaa !14
  %27 = load i64, ptr %3, align 8, !tbaa !14
  %28 = and i64 %26, %27
  %29 = load ptr, ptr %2, align 8, !tbaa !8
  %30 = getelementptr inbounds nuw %struct.gf_s, ptr %29, i32 0, i32 0
  %31 = load i32, ptr %5, align 4, !tbaa !10
  %32 = sub i32 %31, 1
  %33 = zext i32 %32 to i64
  %34 = getelementptr inbounds nuw [8 x i64], ptr %30, i64 0, i64 %33
  %35 = load i64, ptr %34, align 8, !tbaa !14
  %36 = lshr i64 %35, 56
  %37 = add i64 %28, %36
  %38 = load ptr, ptr %2, align 8, !tbaa !8
  %39 = getelementptr inbounds nuw %struct.gf_s, ptr %38, i32 0, i32 0
  %40 = load i32, ptr %5, align 4, !tbaa !10
  %41 = zext i32 %40 to i64
  %42 = getelementptr inbounds nuw [8 x i64], ptr %39, i64 0, i64 %41
  store i64 %37, ptr %42, align 8, !tbaa !14
  br label %43

43:                                               ; preds = %20
  %44 = load i32, ptr %5, align 4, !tbaa !10
  %45 = add i32 %44, -1
  store i32 %45, ptr %5, align 4, !tbaa !10
  br label %17, !llvm.loop !24

46:                                               ; preds = %17
  %47 = load ptr, ptr %2, align 8, !tbaa !8
  %48 = getelementptr inbounds nuw %struct.gf_s, ptr %47, i32 0, i32 0
  %49 = getelementptr inbounds [8 x i64], ptr %48, i64 0, i64 0
  %50 = load i64, ptr %49, align 16, !tbaa !14
  %51 = load i64, ptr %3, align 8, !tbaa !14
  %52 = and i64 %50, %51
  %53 = load i64, ptr %4, align 8, !tbaa !14
  %54 = add i64 %52, %53
  %55 = load ptr, ptr %2, align 8, !tbaa !8
  %56 = getelementptr inbounds nuw %struct.gf_s, ptr %55, i32 0, i32 0
  %57 = getelementptr inbounds [8 x i64], ptr %56, i64 0, i64 0
  store i64 %54, ptr %57, align 16, !tbaa !14
  call void @llvm.lifetime.end.p0(i64 4, ptr %5) #6
  call void @llvm.lifetime.end.p0(i64 8, ptr %4) #6
  call void @llvm.lifetime.end.p0(i64 8, ptr %3) #6
  ret void
}

; Function Attrs: nounwind uwtable
define void @gf_strong_reduce(ptr noundef %0) #0 {
  %2 = alloca ptr, align 8
  %3 = alloca i128, align 16
  %4 = alloca i64, align 8
  %5 = alloca i128, align 16
  %6 = alloca i32, align 4
  store ptr %0, ptr %2, align 8, !tbaa !8
  call void @llvm.lifetime.start.p0(i64 16, ptr %3) #6
  call void @llvm.lifetime.start.p0(i64 8, ptr %4) #6
  call void @llvm.lifetime.start.p0(i64 16, ptr %5) #6
  store i128 0, ptr %5, align 16, !tbaa !12
  call void @llvm.lifetime.start.p0(i64 4, ptr %6) #6
  %7 = load ptr, ptr %2, align 8, !tbaa !8
  call void @gf_weak_reduce(ptr noundef %7)
  store i128 0, ptr %3, align 16, !tbaa !12
  store i32 0, ptr %6, align 4, !tbaa !10
  br label %8

8:                                                ; preds = %38, %1
  %9 = load i32, ptr %6, align 4, !tbaa !10
  %10 = zext i32 %9 to i64
  %11 = icmp ult i64 %10, 8
  br i1 %11, label %12, label %41

12:                                               ; preds = %8
  %13 = load i128, ptr %3, align 16, !tbaa !12
  %14 = load ptr, ptr %2, align 8, !tbaa !8
  %15 = getelementptr inbounds nuw %struct.gf_s, ptr %14, i32 0, i32 0
  %16 = load i32, ptr %6, align 4, !tbaa !10
  %17 = zext i32 %16 to i64
  %18 = getelementptr inbounds nuw [8 x i64], ptr %15, i64 0, i64 %17
  %19 = load i64, ptr %18, align 8, !tbaa !14
  %20 = zext i64 %19 to i128
  %21 = add nsw i128 %13, %20
  %22 = load i32, ptr %6, align 4, !tbaa !10
  %23 = zext i32 %22 to i64
  %24 = getelementptr inbounds nuw [8 x i64], ptr @MODULUS, i64 0, i64 %23
  %25 = load i64, ptr %24, align 8, !tbaa !14
  %26 = zext i64 %25 to i128
  %27 = sub nsw i128 %21, %26
  store i128 %27, ptr %3, align 16, !tbaa !12
  %28 = load i128, ptr %3, align 16, !tbaa !12
  %29 = and i128 %28, 72057594037927935
  %30 = trunc i128 %29 to i64
  %31 = load ptr, ptr %2, align 8, !tbaa !8
  %32 = getelementptr inbounds nuw %struct.gf_s, ptr %31, i32 0, i32 0
  %33 = load i32, ptr %6, align 4, !tbaa !10
  %34 = zext i32 %33 to i64
  %35 = getelementptr inbounds nuw [8 x i64], ptr %32, i64 0, i64 %34
  store i64 %30, ptr %35, align 8, !tbaa !14
  %36 = load i128, ptr %3, align 16, !tbaa !12
  %37 = ashr i128 %36, 56
  store i128 %37, ptr %3, align 16, !tbaa !12
  br label %38

38:                                               ; preds = %12
  %39 = load i32, ptr %6, align 4, !tbaa !10
  %40 = add i32 %39, 1
  store i32 %40, ptr %6, align 4, !tbaa !10
  br label %8, !llvm.loop !20

41:                                               ; preds = %8
  %42 = load i128, ptr %3, align 16, !tbaa !12
  %43 = trunc i128 %42 to i64
  store i64 %43, ptr %4, align 8, !tbaa !14
  store i32 0, ptr %6, align 4, !tbaa !10
  br label %44

44:                                               ; preds = %76, %41
  %45 = load i32, ptr %6, align 4, !tbaa !10
  %46 = zext i32 %45 to i64
  %47 = icmp ult i64 %46, 8
  br i1 %47, label %48, label %79

48:                                               ; preds = %44
  %49 = load i128, ptr %5, align 16, !tbaa !12
  %50 = load ptr, ptr %2, align 8, !tbaa !8
  %51 = getelementptr inbounds nuw %struct.gf_s, ptr %50, i32 0, i32 0
  %52 = load i32, ptr %6, align 4, !tbaa !10
  %53 = zext i32 %52 to i64
  %54 = getelementptr inbounds nuw [8 x i64], ptr %51, i64 0, i64 %53
  %55 = load i64, ptr %54, align 8, !tbaa !14
  %56 = zext i64 %55 to i128
  %57 = add i128 %49, %56
  %58 = load i64, ptr %4, align 8, !tbaa !14
  %59 = load i32, ptr %6, align 4, !tbaa !10
  %60 = zext i32 %59 to i64
  %61 = getelementptr inbounds nuw [8 x i64], ptr @MODULUS, i64 0, i64 %60
  %62 = load i64, ptr %61, align 8, !tbaa !14
  %63 = and i64 %58, %62
  %64 = zext i64 %63 to i128
  %65 = add i128 %57, %64
  store i128 %65, ptr %5, align 16, !tbaa !12
  %66 = load i128, ptr %5, align 16, !tbaa !12
  %67 = and i128 %66, 72057594037927935
  %68 = trunc i128 %67 to i64
  %69 = load ptr, ptr %2, align 8, !tbaa !8
  %70 = getelementptr inbounds nuw %struct.gf_s, ptr %69, i32 0, i32 0
  %71 = load i32, ptr %6, align 4, !tbaa !10
  %72 = zext i32 %71 to i64
  %73 = getelementptr inbounds nuw [8 x i64], ptr %70, i64 0, i64 %72
  store i64 %68, ptr %73, align 8, !tbaa !14
  %74 = load i128, ptr %5, align 16, !tbaa !12
  %75 = lshr i128 %74, 56
  store i128 %75, ptr %5, align 16, !tbaa !12
  br label %76

76:                                               ; preds = %48
  %77 = load i32, ptr %6, align 4, !tbaa !10
  %78 = add i32 %77, 1
  store i32 %78, ptr %6, align 4, !tbaa !10
  br label %44, !llvm.loop !21

79:                                               ; preds = %44
  call void @llvm.lifetime.end.p0(i64 4, ptr %6) #6
  call void @llvm.lifetime.end.p0(i64 16, ptr %5) #6
  call void @llvm.lifetime.end.p0(i64 8, ptr %4) #6
  call void @llvm.lifetime.end.p0(i64 16, ptr %3) #6
  ret void
}

; Function Attrs: alwaysinline nounwind uwtable
define internal void @gf_copy(ptr noundef %0, ptr noundef %1) #2 {
  %3 = alloca ptr, align 8
  %4 = alloca ptr, align 8
  store ptr %0, ptr %3, align 8, !tbaa !8
  store ptr %1, ptr %4, align 8, !tbaa !8
  %5 = load ptr, ptr %3, align 8, !tbaa !8
  %6 = load ptr, ptr %4, align 8, !tbaa !8
  call void @llvm.memcpy.p0.p0.i64(ptr align 16 %5, ptr align 16 %6, i64 64, i1 false), !tbaa.struct !19
  ret void
}

; Function Attrs: nounwind uwtable
define i64 @gf_lobit(ptr noundef %0) #0 {
  %2 = alloca ptr, align 8
  %3 = alloca [1 x %struct.gf_s], align 16
  store ptr %0, ptr %2, align 8, !tbaa !8
  call void @llvm.lifetime.start.p0(i64 64, ptr %3) #6
  %4 = getelementptr inbounds [1 x %struct.gf_s], ptr %3, i64 0, i64 0
  %5 = load ptr, ptr %2, align 8, !tbaa !8
  call void @gf_copy(ptr noundef %4, ptr noundef %5)
  %6 = getelementptr inbounds [1 x %struct.gf_s], ptr %3, i64 0, i64 0
  call void @gf_strong_reduce(ptr noundef %6)
  %7 = getelementptr inbounds [1 x %struct.gf_s], ptr %3, i64 0, i64 0
  %8 = getelementptr inbounds nuw %struct.gf_s, ptr %7, i32 0, i32 0
  %9 = getelementptr inbounds [8 x i64], ptr %8, i64 0, i64 0
  %10 = load i64, ptr %9, align 16, !tbaa !14
  %11 = and i64 %10, 1
  %12 = sub i64 0, %11
  call void @llvm.lifetime.end.p0(i64 64, ptr %3) #6
  ret i64 %12
}