; Function Attrs: nofree norecurse nosync nounwind memory(argmem: readwrite) uwtable
define range(i64 -1, 1) i64 @gf_lobit(ptr noundef readonly captures(none) %0) local_unnamed_addr #0 {
  %2 = alloca [1 x %struct.gf_s], align 16
  call void @llvm.lifetime.start.p0(i64 64, ptr nonnull %2) #6
  call void @llvm.memcpy.p0.p0.i64(ptr noundef nonnull align 16 dereferenceable(64) %2, ptr noundef nonnull align 16 dereferenceable(64) %0, i64 64, i1 false), !tbaa.struct !3
  %3 = getelementptr inbounds nuw i8, ptr %2, i64 56
  %4 = load i64, ptr %3, align 8, !tbaa !7
  %5 = lshr i64 %4, 56
  %6 = getelementptr inbounds nuw i8, ptr %2, i64 32
  %7 = load i64, ptr %6, align 16, !tbaa !7
  %8 = add i64 %7, %5
  store i64 %8, ptr %6, align 16, !tbaa !7
  br label %9

9:                                                ; preds = %9, %1
  %10 = phi i64 [ %4, %1 ], [ %14, %9 ]
  %indvars.iv.i = phi i64 [ 7, %1 ], [ %indvars.iv.next.i, %9 ]
  %11 = getelementptr inbounds nuw [8 x i64], ptr %2, i64 0, i64 %indvars.iv.i
  %12 = and i64 %10, 72057594037927935
  %indvars.iv.next.i = add nsw i64 %indvars.iv.i, -1
  %13 = getelementptr inbounds nuw [8 x i64], ptr %2, i64 0, i64 %indvars.iv.next.i
  %14 = load i64, ptr %13, align 8, !tbaa !7
  %15 = lshr i64 %14, 56
  %16 = add nuw nsw i64 %15, %12
  store i64 %16, ptr %11, align 8, !tbaa !7
  %.not.i.i = icmp eq i64 %indvars.iv.next.i, 0
  br i1 %.not.i.i, label %gf_weak_reduce.exit.i, label %9, !llvm.loop !9

gf_weak_reduce.exit.i:                            ; preds = %9
  %17 = load i64, ptr %2, align 16, !tbaa !7
  %18 = and i64 %17, 72057594037927935
  %19 = add nuw nsw i64 %18, %5
  store i64 %19, ptr %2, align 16, !tbaa !7
  br label %20

20:                                               ; preds = %20, %gf_weak_reduce.exit.i
  %indvars.iv32.i = phi i64 [ 0, %gf_weak_reduce.exit.i ], [ %indvars.iv.next33.i, %20 ]
  %.02327.i = phi i128 [ 0, %gf_weak_reduce.exit.i ], [ %31, %20 ]
  %21 = getelementptr inbounds nuw [8 x i64], ptr %2, i64 0, i64 %indvars.iv32.i
  %22 = load i64, ptr %21, align 8, !tbaa !7
  %23 = zext i64 %22 to i128
  %24 = add nsw i128 %.02327.i, %23
  %25 = getelementptr inbounds nuw [8 x i64], ptr @MODULUS, i64 0, i64 %indvars.iv32.i
  %26 = load i64, ptr %25, align 8, !tbaa !7
  %27 = zext i64 %26 to i128
  %28 = sub nsw i128 %24, %27
  %29 = trunc i128 %28 to i64
  %30 = and i64 %29, 72057594037927935
  store i64 %30, ptr %21, align 8, !tbaa !7
  %31 = ashr i128 %28, 56
  %indvars.iv.next33.i = add nuw nsw i64 %indvars.iv32.i, 1
  %exitcond.not.i = icmp eq i64 %indvars.iv.next33.i, 8
  br i1 %exitcond.not.i, label %32, label %20, !llvm.loop !11

32:                                               ; preds = %20
  %33 = trunc nsw i128 %31 to i64
  br label %34

34:                                               ; preds = %34, %32
  %indvars.iv35.i = phi i64 [ 0, %32 ], [ %indvars.iv.next36.i, %34 ]
  %.02229.i = phi i128 [ 0, %32 ], [ %46, %34 ]
  %35 = getelementptr inbounds nuw [8 x i64], ptr %2, i64 0, i64 %indvars.iv35.i
  %36 = load i64, ptr %35, align 8, !tbaa !7
  %37 = zext i64 %36 to i128
  %38 = add nuw nsw i128 %.02229.i, %37
  %39 = getelementptr inbounds nuw [8 x i64], ptr @MODULUS, i64 0, i64 %indvars.iv35.i
  %40 = load i64, ptr %39, align 8, !tbaa !7
  %41 = and i64 %40, %33
  %42 = zext i64 %41 to i128
  %43 = add nuw nsw i128 %38, %42
  %44 = trunc i128 %43 to i64
  %45 = and i64 %44, 72057594037927935
  store i64 %45, ptr %35, align 8, !tbaa !7
  %46 = lshr i128 %43, 56
  %indvars.iv.next36.i = add nuw nsw i64 %indvars.iv35.i, 1
  %exitcond38.not.i = icmp eq i64 %indvars.iv.next36.i, 8
  br i1 %exitcond38.not.i, label %gf_strong_reduce.exit, label %34, !llvm.loop !12

gf_strong_reduce.exit:                            ; preds = %34
  %47 = load i64, ptr %2, align 16, !tbaa !7
  %48 = and i64 %47, 1
  %49 = sub nsw i64 0, %48
  call void @llvm.lifetime.end.p0(i64 64, ptr nonnull %2) #6
  ret i64 %49
}